target datalayout = "e-m:e-p270:32:32-p271:32:32-p272:64:64-i64:64-i128:128-f80:128-n8:16:32:64-S128"
target triple = "x86_64-pc-linux-gnu"

%"class.OpenSubdiv::v3_6_0::Far::PatchDescriptor" = type { i32 }
%"class.OpenSubdiv::v3_6_0::Far::PatchTable" = type <{ i32, i32, %"class.std::vector", %"class.std::vector.0", %"class.std::vector.5", %"class.std::vector.10", %"class.std::vector.0", %"class.OpenSubdiv::v3_6_0::Far::PatchTable::StencilTablePtr", %"class.OpenSubdiv::v3_6_0::Far::PatchTable::StencilTablePtr", %"class.OpenSubdiv::v3_6_0::Far::PatchDescriptor", [4 x i8], %"class.std::vector.0", %"class.std::vector.15", %"class.std::vector.20", %"class.std::vector.0", %"class.std::vector.25", i8, [7 x i8] }>
%"class.std::vector" = type { %"struct.std::_Vector_base" }
%"struct.std::_Vector_base" = type { %"struct.std::_Vector_base<OpenSubdiv::v3_6_0::Far::PatchTable::PatchArray, std::allocator<OpenSubdiv::v3_6_0::Far::PatchTable::PatchArray>>::_Vector_impl" }
%"struct.std::_Vector_base<OpenSubdiv::v3_6_0::Far::PatchTable::PatchArray, std::allocator<OpenSubdiv::v3_6_0::Far::PatchTable::PatchArray>>::_Vector_impl" = type { %"struct.std::_Vector_base<OpenSubdiv::v3_6_0::Far::PatchTable::PatchArray, std::allocator<OpenSubdiv::v3_6_0::Far::PatchTable::PatchArray>>::_Vector_impl_data" }
%"struct.std::_Vector_base<OpenSubdiv::v3_6_0::Far::PatchTable::PatchArray, std::allocator<OpenSubdiv::v3_6_0::Far::PatchTable::PatchArray>>::_Vector_impl_data" = type { ptr, ptr, ptr }
%"class.std::vector.5" = type { %"struct.std::_Vector_base.6" }
%"struct.std::_Vector_base.6" = type { %"struct.std::_Vector_base<OpenSubdiv::v3_6_0::Far::PatchParam, std::allocator<OpenSubdiv::v3_6_0::Far::PatchParam>>::_Vector_impl" }
%"struct.std::_Vector_base<OpenSubdiv::v3_6_0::Far::PatchParam, std::allocator<OpenSubdiv::v3_6_0::Far::PatchParam>>::_Vector_impl" = type { %"struct.std::_Vector_base<OpenSubdiv::v3_6_0::Far::PatchParam, std::allocator<OpenSubdiv::v3_6_0::Far::PatchParam>>::_Vector_impl_data" }
%"struct.std::_Vector_base<OpenSubdiv::v3_6_0::Far::PatchParam, std::allocator<OpenSubdiv::v3_6_0::Far::PatchParam>>::_Vector_impl_data" = type { ptr, ptr, ptr }
%"class.std::vector.10" = type { %"struct.std::_Vector_base.11" }
%"struct.std::_Vector_base.11" = type { %"struct.std::_Vector_base<unsigned int, std::allocator<unsigned int>>::_Vector_impl" }
%"struct.std::_Vector_base<unsigned int, std::allocator<unsigned int>>::_Vector_impl" = type { %"struct.std::_Vector_base<unsigned int, std::allocator<unsigned int>>::_Vector_impl_data" }
%"struct.std::_Vector_base<unsigned int, std::allocator<unsigned int>>::_Vector_impl_data" = type { ptr, ptr, ptr }
%"class.OpenSubdiv::v3_6_0::Far::PatchTable::StencilTablePtr" = type { %union.anon }
%union.anon = type { ptr }
%"class.std::vector.15" = type { %"struct.std::_Vector_base.16" }
%"struct.std::_Vector_base.16" = type { %"struct.std::_Vector_base<OpenSubdiv::v3_6_0::Far::PatchTable::FVarPatchChannel, std::allocator<OpenSubdiv::v3_6_0::Far::PatchTable::FVarPatchChannel>>::_Vector_impl" }
%"struct.std::_Vector_base<OpenSubdiv::v3_6_0::Far::PatchTable::FVarPatchChannel, std::allocator<OpenSubdiv::v3_6_0::Far::PatchTable::FVarPatchChannel>>::_Vector_impl" = type { %"struct.std::_Vector_base<OpenSubdiv::v3_6_0::Far::PatchTable::FVarPatchChannel, std::allocator<OpenSubdiv::v3_6_0::Far::PatchTable::FVarPatchChannel>>::_Vector_impl_data" }
%"struct.std::_Vector_base<OpenSubdiv::v3_6_0::Far::PatchTable::FVarPatchChannel, std::allocator<OpenSubdiv::v3_6_0::Far::PatchTable::FVarPatchChannel>>::_Vector_impl_data" = type { ptr, ptr, ptr }
%"class.std::vector.20" = type { %"struct.std::_Vector_base.21" }
%"struct.std::_Vector_base.21" = type { %"struct.std::_Vector_base<OpenSubdiv::v3_6_0::Far::PatchTable::StencilTablePtr, std::allocator<OpenSubdiv::v3_6_0::Far::PatchTable::StencilTablePtr>>::_Vector_impl" }
%"struct.std::_Vector_base<OpenSubdiv::v3_6_0::Far::PatchTable::StencilTablePtr, std::allocator<OpenSubdiv::v3_6_0::Far::PatchTable::StencilTablePtr>>::_Vector_impl" = type { %"struct.std::_Vector_base<OpenSubdiv::v3_6_0::Far::PatchTable::StencilTablePtr, std::allocator<OpenSubdiv::v3_6_0::Far::PatchTable::StencilTablePtr>>::_Vector_impl_data" }
%"struct.std::_Vector_base<OpenSubdiv::v3_6_0::Far::PatchTable::StencilTablePtr, std::allocator<OpenSubdiv::v3_6_0::Far::PatchTable::StencilTablePtr>>::_Vector_impl_data" = type { ptr, ptr, ptr }
%"class.std::vector.0" = type { %"struct.std::_Vector_base.1" }
%"struct.std::_Vector_base.1" = type { %"struct.std::_Vector_base<int, std::allocator<int>>::_Vector_impl" }
%"struct.std::_Vector_base<int, std::allocator<int>>::_Vector_impl" = type { %"struct.std::_Vector_base<int, std::allocator<int>>::_Vector_impl_data" }
%"struct.std::_Vector_base<int, std::allocator<int>>::_Vector_impl_data" = type { ptr, ptr, ptr }
%"class.std::vector.25" = type { %"struct.std::_Vector_base.26" }
%"struct.std::_Vector_base.26" = type { %"struct.std::_Vector_base<float, std::allocator<float>>::_Vector_impl" }
%"struct.std::_Vector_base<float, std::allocator<float>>::_Vector_impl" = type { %"struct.std::_Vector_base<float, std::allocator<float>>::_Vector_impl_data" }
%"struct.std::_Vector_base<float, std::allocator<float>>::_Vector_impl_data" = type { ptr, ptr, ptr }

; Function Attrs: mustprogress nounwind uwtable
define linkonce_odr noundef i64 @_ZNKSt6vectorIN10OpenSubdiv6v3_6_03Far10PatchTable10PatchArrayESaIS4_EE4sizeEv(ptr noundef nonnull align 8 dereferenceable(24) %0) #5 comdat align 2 {
  %2 = alloca ptr, align 8
  store ptr %0, ptr %2, align 8
  %3 = load ptr, ptr %2, align 8
  %4 = getelementptr inbounds nuw %"struct.std::_Vector_base", ptr %3, i32 0, i32 0
  %5 = getelementptr inbounds nuw %"struct.std::_Vector_base<OpenSubdiv::v3_6_0::Far::PatchTable::PatchArray, std::allocator<OpenSubdiv::v3_6_0::Far::PatchTable::PatchArray>>::_Vector_impl_data", ptr %4, i32 0, i32 1
  %6 = load ptr, ptr %5, align 8
  %7 = getelementptr inbounds nuw %"struct.std::_Vector_base", ptr %3, i32 0, i32 0
  %8 = getelementptr inbounds nuw %"struct.std::_Vector_base<OpenSubdiv::v3_6_0::Far::PatchTable::PatchArray, std::allocator<OpenSubdiv::v3_6_0::Far::PatchTable::PatchArray>>::_Vector_impl_data", ptr %7, i32 0, i32 0
  %9 = load ptr, ptr %8, align 8
  %10 = ptrtoint ptr %6 to i64
  %11 = ptrtoint ptr %9 to i64
  %12 = sub i64 %10, %11
  %13 = sdiv exact i64 %12, 20
  ret i64 %13
}

; Function Attrs: mustprogress nounwind uwtable
define noundef i32 @_ZNK10OpenSubdiv6v3_6_03Far10PatchTable17GetNumPatchArraysEv(ptr noundef nonnull align 8 dereferenceable(273) %0) #5 align 2 {
  %2 = alloca ptr, align 8
  store ptr %0, ptr %2, align 8
  %3 = load ptr, ptr %2, align 8
  %4 = getelementptr inbounds nuw %"class.OpenSubdiv::v3_6_0::Far::PatchTable", ptr %3, i32 0, i32 2
  %5 = call noundef i64 @_ZNKSt6vectorIN10OpenSubdiv6v3_6_03Far10PatchTable10PatchArrayESaIS4_EE4sizeEv(ptr noundef nonnull align 8 dereferenceable(24) %4) #3
  %6 = trunc i64 %5 to i32
  ret i32 %6
}